; Function Attrs: fn_ret_thunk_extern nounwind null_pointer_is_valid
define internal noundef i64 @iomem_base_show(ptr nocapture noundef readonly %0, ptr nocapture readnone %1, ptr nocapture noundef writeonly %2) #0 align 16 {
  %4 = getelementptr inbounds i8, ptr %0, i64 120
  %5 = load ptr, ptr %4, align 8
  %6 = getelementptr inbounds i8, ptr %5, i64 256
  tail call void @mutex_lock(ptr noundef %6) #19
  %7 = getelementptr inbounds i8, ptr %5, i64 432
  %8 = load ptr, ptr %7, align 8
  %9 = icmp eq ptr %8, null
  br i1 %9, label %uart_get_info.exit, label %10

10:                                               ; preds = %3
  %11 = getelementptr inbounds i8, ptr %5, i64 352
  %12 = load i32, ptr %11, align 8
  %13 = zext i32 %12 to i64
  %14 = tail call i32 @jiffies_to_msecs(i64 noundef %13) #19
  %15 = getelementptr inbounds i8, ptr %5, i64 356
  %16 = load i32, ptr %15, align 4
  %17 = icmp eq i32 %16, 65535
  br i1 %17, label %21, label %18

18:                                               ; preds = %10
  %19 = zext i32 %16 to i64
  %20 = tail call i32 @jiffies_to_msecs(i64 noundef %19) #19
  br label %21

21:                                               ; preds = %18, %10
  %22 = getelementptr inbounds i8, ptr %8, i64 328
  %23 = load i64, ptr %22, align 8
  br label %uart_get_info.exit

uart_get_info.exit:                               ; preds = %3, %21
  %.sroa.162.0 = phi i64 [ 0, %3 ], [ %23, %21 ]
  tail call void @mutex_unlock(ptr noundef %6) #19
  %24 = tail call i32 (ptr, ptr, ...) @sprintf(ptr noundef %2, ptr noundef nonnull dereferenceable(1) @.str.58, i64 noundef %.sroa.162.0) #19
  %25 = sext i32 %24 to i64
  ret i64 %25
}